target datalayout = "e-m:e-p270:32:32-p271:32:32-p272:64:64-i64:64-i128:128-f80:128-n8:16:32:64-S128"
target triple = "x86_64-pc-linux-gnu"

@_ZN6icu_7722LocaleDisplayNamesImplC1ERKNS_6LocaleE16UDialectHandling = unnamed_addr alias void (ptr, ptr, i32), ptr @_ZN6icu_7722LocaleDisplayNamesImplC2ERKNS_6LocaleE16UDialectHandling

; Function Attrs: mustprogress uwtable
define noundef ptr @_ZN6icu_7718LocaleDisplayNames14createInstanceERKNS_6LocaleE16UDialectHandling(ptr noundef nonnull align 8 dereferenceable(217) %0, i32 noundef %1) #1 align 2 personality ptr @__gxx_personality_v0 {
  %3 = alloca ptr, align 8
  %4 = alloca i32, align 4
  %5 = alloca i1, align 1
  %6 = alloca ptr, align 8
  %7 = alloca i32, align 4
  store ptr %0, ptr %3, align 8, !tbaa !25
  store i32 %1, ptr %4, align 4, !tbaa !40
  %8 = call noundef ptr @_ZN6icu_777UMemorynwEm(i64 noundef 1208) #13
  %9 = icmp eq ptr %8, null
  store i1 false, ptr %5, align 1
  br i1 %9, label %14, label %10

10:                                               ; preds = %2
  store i1 true, ptr %5, align 1
  %11 = load ptr, ptr %3, align 8, !tbaa !25
  %12 = load i32, ptr %4, align 4, !tbaa !40
  invoke void @_ZN6icu_7722LocaleDisplayNamesImplC1ERKNS_6LocaleE16UDialectHandling(ptr noundef nonnull align 8 dereferenceable(1206) %8, ptr noundef nonnull align 8 dereferenceable(217) %11, i32 noundef %12)
          to label %13 unwind label %16

13:                                               ; preds = %10
  br label %14

14:                                               ; preds = %13, %2
  %15 = phi ptr [ %8, %13 ], [ null, %2 ]
  ret ptr %15

16:                                               ; preds = %10
  %17 = landingpad { ptr, i32 }
          cleanup
  %18 = extractvalue { ptr, i32 } %17, 0
  store ptr %18, ptr %6, align 8
  %19 = extractvalue { ptr, i32 } %17, 1
  store i32 %19, ptr %7, align 4
  %20 = load i1, ptr %5, align 1
  br i1 %20, label %21, label %22

21:                                               ; preds = %16
  call void @_ZN6icu_777UMemorydlEPv(ptr noundef %8) #13
  br label %22

22:                                               ; preds = %21, %16
  br label %23

23:                                               ; preds = %22
  %24 = load ptr, ptr %6, align 8
  %25 = load i32, ptr %7, align 4
  %26 = insertvalue { ptr, i32 } poison, ptr %24, 0
  %27 = insertvalue { ptr, i32 } %26, i32 %25, 1
  resume { ptr, i32 } %27
}