; Function Attrs: mustprogress uwtable
define noundef ptr @_ZN6icu_7718LocaleDisplayNames14createInstanceERKNS_6LocaleE16UDialectHandling(ptr noundef nonnull align 8 dereferenceable(217) %0, i32 noundef %1) local_unnamed_addr #1 align 2 personality ptr @__gxx_personality_v0 {
  %3 = tail call noundef ptr @_ZN6icu_777UMemorynwEm(i64 noundef 1208) #19
  %4 = icmp eq ptr %3, null
  br i1 %4, label %6, label %5

5:                                                ; preds = %2
  invoke void @_ZN6icu_7722LocaleDisplayNamesImplC1ERKNS_6LocaleE16UDialectHandling(ptr noundef nonnull align 8 dereferenceable(1206) %3, ptr noundef nonnull align 8 dereferenceable(217) %0, i32 noundef %1)
          to label %6 unwind label %7

6:                                                ; preds = %5, %2
  ret ptr %3

7:                                                ; preds = %5
  %8 = landingpad { ptr, i32 }
          cleanup
  tail call void @_ZN6icu_777UMemorydlEPv(ptr noundef nonnull %3) #19
  resume { ptr, i32 } %8
}